Certificate:
    Data:
        Version: 3 (0x2)
        Serial Number: 4661 (0x1235)
    Signature Algorithm: sha1WithRSAEncryption
        Issuer: C=PL, ST=dolnoslaskie, L=Wroclaw, O=Pwr, OU=BusLab, CN=BusLab/emailAddress=184792@student.pwr.wroc.pl
        Validity
            Not Before: Nov 12 16:56:20 2014 GMT
            Not After : Nov 12 16:56:20 2015 GMT
        Subject: C=PL, ST=dolnoslaskie, L=Wroclaw, O=Pwr, OU=Hubert, CN=Hubert/emailAddress=hubert@hubert.pl
        Subject Public Key Info:
            Public Key Algorithm: rsaEncryption
                Public-Key: (1024 bit)
                Modulus:
                    00:b2:df:04:a2:f5:d2:a4:85:19:c7:af:82:26:cf:
                    9b:94:ce:f4:10:29:d9:a6:97:ad:33:99:41:dc:bf:
                    68:e5:17:a8:46:af:e7:8f:11:3a:ad:2e:7b:60:b9:
                    f2:0c:ed:44:e0:23:06:13:2c:5b:0a:e1:1c:25:94:
                    56:37:dd:84:6f:cc:dc:b1:03:f6:ce:55:e1:ff:d8:
                    fd:fd:40:d3:25:eb:7b:70:3e:86:ea:eb:57:f9:3c:
                    43:7c:44:e3:79:a0:73:3d:ac:8e:25:2d:38:0d:c5:
                    bd:72:6a:71:13:ee:a5:8f:5c:98:30:e8:5f:c6:0b:
                    5a:c2:de:c4:d9:75:96:8c:c3
                Exponent: 65537 (0x10001)
        X509v3 extensions:
            X509v3 Basic Constraints: 
                CA:FALSE
            Netscape Comment: 
                OpenSSL Generated Certificate
            X509v3 Subject Key Identifier: 
                42:84:D7:09:AF:BC:1A:4B:6A:36:04:4F:33:78:90:82:81:75:88:3A
            X509v3 Authority Key Identifier: 
                keyid:2B:A0:AA:7D:B8:98:42:9B:E7:93:3A:6E:AF:64:64:7C:4A:8C:DF:47

    Signature Algorithm: sha1WithRSAEncryption
         40:4b:ed:b0:32:23:e1:0e:0b:c6:98:f2:b7:d0:73:f0:35:3d:
         32:96:ef:c3:e4:4d:3c:c8:61:79:9c:77:e4:cc:53:d1:9e:b4:
         8d:1d:8e:23:8e:db:49:e7:3b:36:87:86:bd:07:88:d2:bc:d1:
         90:fe:63:c1:56:ff:da:0d:d3:9f:c8:f1:f5:be:4b:7a:15:46:
         0c:b0:b0:5e:5f:c9:32:8a:5a:7f:e0:d0:e0:79:85:a6:45:df:
         f5:f0:1c:cc:cb:eb:6b:f8:7d:90:ec:0c:0e:fa:a8:62:2b:e2:
         fd:33:1c:75:f9:d4:4b:e0:cd:ac:29:01:ea:c5:3d:2c:1b:c9:
         89:c6
-----BEGIN CERTIFICATE-----
MIIDDDCCAnWgAwIBAgICEjUwDQYJKoZIhvcNAQEFBQAwgZExCzAJBgNVBAYTAlBM
MRUwEwYDVQQIDAxkb2xub3NsYXNraWUxEDAOBgNVBAcMB1dyb2NsYXcxDDAKBgNV
BAoMA1B3cjEPMA0GA1UECwwGQnVzTGFiMQ8wDQYDVQQDDAZCdXNMYWIxKTAnBgkq
hkiG9w0BCQEWGjE4NDc5MkBzdHVkZW50LnB3ci53cm9jLnBsMB4XDTE0MTExMjE2
NTYyMFoXDTE1MTExMjE2NTYyMFowgYcxCzAJBgNVBAYTAlBMMRUwEwYDVQQIDAxk
b2xub3NsYXNraWUxEDAOBgNVBAcMB1dyb2NsYXcxDDAKBgNVBAoMA1B3cjEPMA0G
A1UECwwGSHViZXJ0MQ8wDQYDVQQDDAZIdWJlcnQxHzAdBgkqhkiG9w0BCQEWEGh1
YmVydEBodWJlcnQucGwwgZ8wDQYJKoZIhvcNAQEBBQADgY0AMIGJAoGBALLfBKL1
0qSFGcevgibPm5TO9BAp2aaXrTOZQdy/aOUXqEav548ROq0ue2C58gztROAjBhMs
WwrhHCWUVjfdhG/M3LED9s5V4f/Y/f1A0yXre3A+hurrV/k8Q3xE43mgcz2sjiUt
OA3FvXJqcRPupY9cmDDoX8YLWsLexNl1lozDAgMBAAGjezB5MAkGA1UdEwQCMAAw
LAYJYIZIAYb4QgENBB8WHU9wZW5TU0wgR2VuZXJhdGVkIENlcnRpZmljYXRlMB0G
A1UdDgQWBBRChNcJr7waS2o2BE8zeJCCgXWIOjAfBgNVHSMEGDAWgBQroKp9uJhC
m+eTOm6vZGR8SozfRzANBgkqhkiG9w0BAQUFAAOBgQBAS+2wMiPhDgvGmPK30HPw
NT0ylu/D5E08yGF5nHfkzFPRnrSNHY4jjttJ5zs2h4a9B4jSvNGQ/mPBVv/aDdOf
yPH1vkt6FUYMsLBeX8kyilp/4NDgeYWmRd/18BzMy+tr+H2Q7AwO+qhiK+L9Mxx1
+dRL4M2sKQHqxT0sG8mJxg==
-----END CERTIFICATE-----
